; Function Attrs: mustprogress uwtable
define internal fastcc void @_ZN12_GLOBAL__N_119interpolationLinearIaE9getCoeffsEiPiPNS_12fixedpoint32E(ptr noundef nonnull align 8 dereferenceable(20) %0, i32 noundef %1, ptr noundef writeonly captures(none) %2, ptr noundef writeonly captures(none) %3) unnamed_addr #4 align 2 {
  %5 = alloca %"struct.cv::softdouble", align 8
  %6 = alloca %"struct.cv::softdouble", align 8
  %7 = alloca %"struct.cv::softdouble", align 8
  %8 = alloca %"struct.cv::softdouble", align 8
  %9 = alloca %"struct.cv::softdouble", align 8
  %10 = alloca %"struct.cv::softdouble", align 8
  %11 = alloca %"struct.cv::softdouble", align 8
  %12 = alloca %"struct.cv::softdouble", align 8
  %13 = alloca %"struct.cv::softdouble", align 8
  %14 = alloca %"struct.cv::softdouble", align 8
  call void @llvm.lifetime.start.p0(i64 8, ptr nonnull %7) #21
  call void @llvm.lifetime.start.p0(i64 8, ptr nonnull %8) #21
  call void @llvm.lifetime.start.p0(i64 8, ptr nonnull %9) #21
  call void @llvm.lifetime.start.p0(i64 8, ptr nonnull %10) #21
  call void @_ZN2cv10softdoubleC1Ei(ptr noundef nonnull align 8 dereferenceable(8) %10, i32 noundef %1)
  call void @llvm.lifetime.start.p0(i64 8, ptr nonnull %11) #21
  store double 5.000000e-01, ptr %11, align 8, !tbaa !149
  call void @_ZNK2cv10softdoubleplERKS0_(ptr dead_on_unwind nonnull writable sret(%"struct.cv::softdouble") align 8 %9, ptr noundef nonnull align 8 dereferenceable(8) %10, ptr noundef nonnull align 8 dereferenceable(8) %11)
  call void @_ZNK2cv10softdoublemlERKS0_(ptr dead_on_unwind nonnull writable sret(%"struct.cv::softdouble") align 8 %8, ptr noundef nonnull align 8 dereferenceable(8) %0, ptr noundef nonnull align 8 dereferenceable(8) %9)
  call void @llvm.lifetime.start.p0(i64 8, ptr nonnull %12) #21
  store double 5.000000e-01, ptr %12, align 8, !tbaa !149
  call void @_ZNK2cv10softdoublemiERKS0_(ptr dead_on_unwind nonnull writable sret(%"struct.cv::softdouble") align 8 %7, ptr noundef nonnull align 8 dereferenceable(8) %8, ptr noundef nonnull align 8 dereferenceable(8) %12)
  call void @llvm.lifetime.end.p0(i64 8, ptr nonnull %12) #21
  call void @llvm.lifetime.end.p0(i64 8, ptr nonnull %11) #21
  call void @llvm.lifetime.end.p0(i64 8, ptr nonnull %10) #21
  call void @llvm.lifetime.end.p0(i64 8, ptr nonnull %9) #21
  call void @llvm.lifetime.end.p0(i64 8, ptr nonnull %8) #21
  %15 = call noundef i32 @_Z7cvFloorRKN2cv10softdoubleE(ptr noundef nonnull align 8 dereferenceable(8) %7)
  %16 = icmp sgt i32 %15, -1
  br i1 %16, label %17, label %35

17:                                               ; preds = %4
  %18 = getelementptr inbounds nuw i8, ptr %0, i64 8
  %19 = load i32, ptr %18, align 8, !tbaa !192
  %20 = icmp sgt i32 %19, 1
  br i1 %20, label %21, label %35

21:                                               ; preds = %17
  %22 = add nsw i32 %19, -1
  %23 = icmp samesign ult i32 %15, %22
  br i1 %23, label %24, label %32

24:                                               ; preds = %21
  store i32 %15, ptr %2, align 4, !tbaa !16
  call void @llvm.lifetime.start.p0(i64 8, ptr nonnull %13) #21
  call void @llvm.lifetime.start.p0(i64 8, ptr nonnull %14) #21
  call void @_ZN2cv10softdoubleC1Ei(ptr noundef nonnull align 8 dereferenceable(8) %14, i32 noundef %15)
  call void @_ZNK2cv10softdoublemiERKS0_(ptr dead_on_unwind nonnull writable sret(%"struct.cv::softdouble") align 8 %13, ptr noundef nonnull align 8 dereferenceable(8) %7, ptr noundef nonnull align 8 dereferenceable(8) %14)
  %25 = getelementptr inbounds nuw i8, ptr %3, i64 4
  call void @llvm.lifetime.start.p0(i64 8, ptr nonnull %5) #21
  call void @llvm.lifetime.start.p0(i64 8, ptr nonnull %6) #21
  call void @_ZN2cv10softdoubleC1Ei(ptr noundef nonnull align 8 dereferenceable(8) %6, i32 noundef 65536)
  call void @_ZNK2cv10softdoublemlERKS0_(ptr dead_on_unwind nonnull writable sret(%"struct.cv::softdouble") align 8 %5, ptr noundef nonnull align 8 dereferenceable(8) %13, ptr noundef nonnull align 8 dereferenceable(8) %6)
  %26 = call noundef i32 @_Z7cvRoundRKN2cv10softdoubleE(ptr noundef nonnull align 8 dereferenceable(8) %5)
  store i32 %26, ptr %25, align 4, !tbaa !985
  call void @llvm.lifetime.end.p0(i64 8, ptr nonnull %6) #21
  call void @llvm.lifetime.end.p0(i64 8, ptr nonnull %5) #21
  call void @llvm.lifetime.end.p0(i64 8, ptr nonnull %14) #21
  call void @llvm.lifetime.end.p0(i64 8, ptr nonnull %13) #21
  %27 = sub nsw i32 65536, %26
  %28 = and i32 %27, %26
  %29 = and i32 %27, -2147483648
  %30 = xor i32 %29, -1
  %.not5.i = icmp slt i32 %28, 0
  %31 = select i1 %.not5.i, i32 %30, i32 %27
  store i32 %31, ptr %3, align 4, !tbaa !985
  br label %39

32:                                               ; preds = %21
  store i32 %22, ptr %2, align 4, !tbaa !16
  %33 = getelementptr inbounds nuw i8, ptr %0, i64 16
  %34 = load i32, ptr %33, align 8, !tbaa !16
  %.sroa.speculated16 = call i32 @llvm.smin.i32(i32 %1, i32 %34)
  store i32 %.sroa.speculated16, ptr %33, align 8, !tbaa !195
  br label %39

35:                                               ; preds = %17, %4
  %36 = getelementptr inbounds nuw i8, ptr %0, i64 12
  %37 = add nsw i32 %1, 1
  %38 = load i32, ptr %36, align 4, !tbaa !16
  %.sroa.speculated = call i32 @llvm.smax.i32(i32 %38, i32 %37)
  store i32 %.sroa.speculated, ptr %36, align 4, !tbaa !194
  br label %39

39:                                               ; preds = %24, %32, %35
  call void @llvm.lifetime.end.p0(i64 8, ptr nonnull %7) #21
  ret void
}